; Function Attrs: mustprogress nofree norecurse nosync nounwind willreturn memory(argmem: read) uwtable
define internal noundef zeroext i1 @_ZNK6google8protobuf8compiler3cpp12_GLOBAL__N_115SingularMessage13RequiresArenaENS2_18FieldGeneratorBase17GeneratorFunctionE(ptr nocapture noundef nonnull readonly align 8 dereferenceable(106) %this, i32 noundef %function) unnamed_addr #8 align 2 {
entry:
  %cond = icmp eq i32 %function, 0
  %should_split_.i = getelementptr inbounds i8, ptr %this, i64 64
  %0 = load i8, ptr %should_split_.i, align 8
  %1 = and i8 %0, 1
  %tobool.i.not = icmp eq i8 %1, 0
  %retval.0 = select i1 %cond, i1 %tobool.i.not, i1 false
  ret i1 %retval.0
}